target datalayout = "e-m:e-p270:32:32-p271:32:32-p272:64:64-i64:64-i128:128-f80:128-n8:16:32:64-S128"
target triple = "x86_64-pc-linux-gnu"

%struct.ossl_param_st = type { ptr, i32, ptr, i64, i64 }
%struct.ml_kem_gen_ctx_st = type { ptr, ptr, i32, i32, [64 x i8], ptr }

@.str.8 = private unnamed_addr constant [5 x i8] c"seed\00", align 1
@.str.9 = private unnamed_addr constant [60 x i8] c"../openssl/providers/implementations/keymgmt/ml_kem_kmgmt.c\00", align 1
@.str.12 = private unnamed_addr constant [11 x i8] c"properties\00", align 1
@__func__.ml_kem_gen_set_params = private unnamed_addr constant [22 x i8] c"ml_kem_gen_set_params\00", align 1

; Function Attrs: inlinehint nounwind uwtable
define internal i32 @ossl_param_is_empty(ptr noundef %0) #4 {
  %2 = alloca ptr, align 8
  store ptr %0, ptr %2, align 8, !tbaa !7
  %3 = load ptr, ptr %2, align 8, !tbaa !7
  %4 = icmp eq ptr %3, null
  br i1 %4, label %10, label %5

5:                                                ; preds = %1
  %6 = load ptr, ptr %2, align 8, !tbaa !7
  %7 = getelementptr inbounds nuw %struct.ossl_param_st, ptr %6, i32 0, i32 0
  %8 = load ptr, ptr %7, align 8, !tbaa !54
  %9 = icmp eq ptr %8, null
  br label %10

10:                                               ; preds = %5, %1
  %11 = phi i1 [ true, %1 ], [ %9, %5 ]
  %12 = zext i1 %11 to i32
  ret i32 %12
}

; Function Attrs: nounwind uwtable
define internal i32 @ml_kem_gen_set_params(ptr noundef %0, ptr noundef %1) #0 {
  %3 = alloca i32, align 4
  %4 = alloca ptr, align 8
  %5 = alloca ptr, align 8
  %6 = alloca ptr, align 8
  %7 = alloca ptr, align 8
  %8 = alloca i32, align 4
  %9 = alloca i64, align 8
  store ptr %0, ptr %4, align 8, !tbaa !3
  store ptr %1, ptr %5, align 8, !tbaa !7
  call void @llvm.lifetime.start.p0(i64 8, ptr %6) #7
  %10 = load ptr, ptr %4, align 8, !tbaa !3
  store ptr %10, ptr %6, align 8, !tbaa !38
  call void @llvm.lifetime.start.p0(i64 8, ptr %7) #7
  %11 = load ptr, ptr %6, align 8, !tbaa !38
  %12 = icmp eq ptr %11, null
  br i1 %12, label %13, label %14

13:                                               ; preds = %2
  store i32 0, ptr %3, align 4
  store i32 1, ptr %8, align 4
  br label %69

14:                                               ; preds = %2
  %15 = load ptr, ptr %5, align 8, !tbaa !7
  %16 = call i32 @ossl_param_is_empty(ptr noundef %15)
  %17 = icmp ne i32 %16, 0
  br i1 %17, label %18, label %19

18:                                               ; preds = %14
  store i32 1, ptr %3, align 4
  store i32 1, ptr %8, align 4
  br label %69

19:                                               ; preds = %14
  %20 = load ptr, ptr %5, align 8, !tbaa !7
  %21 = call ptr @OSSL_PARAM_locate_const(ptr noundef %20, ptr noundef @.str.12)
  store ptr %21, ptr %7, align 8, !tbaa !7
  %22 = load ptr, ptr %7, align 8, !tbaa !7
  %23 = icmp ne ptr %22, null
  br i1 %23, label %24, label %43

24:                                               ; preds = %19
  %25 = load ptr, ptr %7, align 8, !tbaa !7
  %26 = getelementptr inbounds nuw %struct.ossl_param_st, ptr %25, i32 0, i32 1
  %27 = load i32, ptr %26, align 8, !tbaa !26
  %28 = icmp ne i32 %27, 4
  br i1 %28, label %29, label %30

29:                                               ; preds = %24
  store i32 0, ptr %3, align 4
  store i32 1, ptr %8, align 4
  br label %69

30:                                               ; preds = %24
  %31 = load ptr, ptr %6, align 8, !tbaa !38
  %32 = getelementptr inbounds nuw %struct.ml_kem_gen_ctx_st, ptr %31, i32 0, i32 1
  %33 = load ptr, ptr %32, align 8, !tbaa !40
  call void @CRYPTO_free(ptr noundef %33, ptr noundef @.str.9, i32 noundef 631)
  %34 = load ptr, ptr %7, align 8, !tbaa !7
  %35 = getelementptr inbounds nuw %struct.ossl_param_st, ptr %34, i32 0, i32 2
  %36 = load ptr, ptr %35, align 8, !tbaa !30
  %37 = call noalias ptr @CRYPTO_strdup(ptr noundef %36, ptr noundef @.str.9, i32 noundef 632)
  %38 = load ptr, ptr %6, align 8, !tbaa !38
  %39 = getelementptr inbounds nuw %struct.ml_kem_gen_ctx_st, ptr %38, i32 0, i32 1
  store ptr %37, ptr %39, align 8, !tbaa !40
  %40 = icmp eq ptr %37, null
  br i1 %40, label %41, label %42

41:                                               ; preds = %30
  store i32 0, ptr %3, align 4
  store i32 1, ptr %8, align 4
  br label %69

42:                                               ; preds = %30
  br label %43

43:                                               ; preds = %42, %19
  %44 = load ptr, ptr %5, align 8, !tbaa !7
  %45 = call ptr @OSSL_PARAM_locate_const(ptr noundef %44, ptr noundef @.str.8)
  store ptr %45, ptr %7, align 8, !tbaa !7
  %46 = load ptr, ptr %7, align 8, !tbaa !7
  %47 = icmp ne ptr %46, null
  br i1 %47, label %48, label %68

48:                                               ; preds = %43
  call void @llvm.lifetime.start.p0(i64 8, ptr %9) #7
  store i64 64, ptr %9, align 8, !tbaa !37
  %49 = load ptr, ptr %6, align 8, !tbaa !38
  %50 = getelementptr inbounds nuw %struct.ml_kem_gen_ctx_st, ptr %49, i32 0, i32 4
  %51 = getelementptr inbounds [64 x i8], ptr %50, i64 0, i64 0
  %52 = load ptr, ptr %6, align 8, !tbaa !38
  %53 = getelementptr inbounds nuw %struct.ml_kem_gen_ctx_st, ptr %52, i32 0, i32 5
  store ptr %51, ptr %53, align 8, !tbaa !43
  %54 = load ptr, ptr %7, align 8, !tbaa !7
  %55 = load ptr, ptr %6, align 8, !tbaa !38
  %56 = getelementptr inbounds nuw %struct.ml_kem_gen_ctx_st, ptr %55, i32 0, i32 5
  %57 = load i64, ptr %9, align 8, !tbaa !37
  %58 = call i32 @OSSL_PARAM_get_octet_string(ptr noundef %54, ptr noundef %56, i64 noundef %57, ptr noundef %9)
  %59 = icmp ne i32 %58, 0
  br i1 %59, label %60, label %64

60:                                               ; preds = %48
  %61 = load i64, ptr %9, align 8, !tbaa !37
  %62 = icmp eq i64 %61, 64
  br i1 %62, label %63, label %64

63:                                               ; preds = %60
  store i32 1, ptr %3, align 4
  store i32 1, ptr %8, align 4
  br label %67

64:                                               ; preds = %60, %48
  call void @ERR_new()
  call void @ERR_set_debug(ptr noundef @.str.9, i32 noundef 646, ptr noundef @__func__.ml_kem_gen_set_params)
  call void (i32, i32, ptr, ...) @ERR_set_error(i32 noundef 57, i32 noundef 154, ptr noundef null)
  %65 = load ptr, ptr %6, align 8, !tbaa !38
  %66 = getelementptr inbounds nuw %struct.ml_kem_gen_ctx_st, ptr %65, i32 0, i32 5
  store ptr null, ptr %66, align 8, !tbaa !43
  store i32 0, ptr %3, align 4
  store i32 1, ptr %8, align 4
  br label %67

67:                                               ; preds = %64, %63
  call void @llvm.lifetime.end.p0(i64 8, ptr %9) #7
  br label %69

68:                                               ; preds = %43
  store i32 1, ptr %3, align 4
  store i32 1, ptr %8, align 4
  br label %69

69:                                               ; preds = %68, %67, %41, %29, %18, %13
  call void @llvm.lifetime.end.p0(i64 8, ptr %7) #7
  call void @llvm.lifetime.end.p0(i64 8, ptr %6) #7
  %70 = load i32, ptr %3, align 4
  ret i32 %70
}