; Function Attrs: nounwind uwtable
define internal range(i32 0, 2) i32 @ml_kem_gen_set_params(ptr noundef %0, ptr noundef %1) #0 {
  %3 = alloca i64, align 8
  %4 = icmp eq ptr %0, null
  br i1 %4, label %ossl_param_is_empty.exit.thread, label %5

5:                                                ; preds = %2
  %6 = icmp eq ptr %1, null
  br i1 %6, label %ossl_param_is_empty.exit.thread, label %ossl_param_is_empty.exit

ossl_param_is_empty.exit:                         ; preds = %5
  %7 = load ptr, ptr %1, align 8, !tbaa !35
  %.not = icmp eq ptr %7, null
  br i1 %.not, label %ossl_param_is_empty.exit.thread, label %8

8:                                                ; preds = %ossl_param_is_empty.exit
  %9 = tail call ptr @OSSL_PARAM_locate_const(ptr noundef nonnull %1, ptr noundef nonnull @.str.12) #7
  %.not20 = icmp eq ptr %9, null
  br i1 %.not20, label %20, label %10

10:                                               ; preds = %8
  %11 = getelementptr inbounds nuw i8, ptr %9, i64 8
  %12 = load i32, ptr %11, align 8, !tbaa !22
  %.not21 = icmp eq i32 %12, 4
  br i1 %.not21, label %13, label %ossl_param_is_empty.exit.thread

13:                                               ; preds = %10
  %14 = getelementptr inbounds nuw i8, ptr %0, i64 8
  %15 = load ptr, ptr %14, align 8, !tbaa !37
  tail call void @CRYPTO_free(ptr noundef %15, ptr noundef nonnull @.str.9, i32 noundef 631) #7
  %16 = getelementptr inbounds nuw i8, ptr %9, i64 16
  %17 = load ptr, ptr %16, align 8, !tbaa !26
  %18 = tail call noalias ptr @CRYPTO_strdup(ptr noundef %17, ptr noundef nonnull @.str.9, i32 noundef 632) #7
  store ptr %18, ptr %14, align 8, !tbaa !37
  %19 = icmp eq ptr %18, null
  br i1 %19, label %ossl_param_is_empty.exit.thread, label %20

20:                                               ; preds = %13, %8
  %21 = tail call ptr @OSSL_PARAM_locate_const(ptr noundef nonnull %1, ptr noundef nonnull @.str.8) #7
  %.not22 = icmp eq ptr %21, null
  br i1 %.not22, label %ossl_param_is_empty.exit.thread, label %22

22:                                               ; preds = %20
  call void @llvm.lifetime.start.p0(i64 8, ptr nonnull %3) #7
  store i64 64, ptr %3, align 8, !tbaa !34
  %23 = getelementptr inbounds nuw i8, ptr %0, i64 24
  %24 = getelementptr inbounds nuw i8, ptr %0, i64 88
  store ptr %23, ptr %24, align 8, !tbaa !40
  %25 = call i32 @OSSL_PARAM_get_octet_string(ptr noundef nonnull %21, ptr noundef nonnull %24, i64 noundef 64, ptr noundef nonnull %3) #7
  %26 = icmp ne i32 %25, 0
  %27 = load i64, ptr %3, align 8
  %28 = icmp eq i64 %27, 64
  %or.cond = select i1 %26, i1 %28, i1 false
  br i1 %or.cond, label %30, label %29

29:                                               ; preds = %22
  call void @ERR_new() #7
  call void @ERR_set_debug(ptr noundef nonnull @.str.9, i32 noundef 646, ptr noundef nonnull @__func__.ml_kem_gen_set_params) #7
  call void (i32, i32, ptr, ...) @ERR_set_error(i32 noundef 57, i32 noundef 154, ptr noundef null) #7
  store ptr null, ptr %24, align 8, !tbaa !40
  br label %30

30:                                               ; preds = %22, %29
  %.1 = phi i32 [ 0, %29 ], [ 1, %22 ]
  call void @llvm.lifetime.end.p0(i64 8, ptr nonnull %3) #7
  br label %ossl_param_is_empty.exit.thread

ossl_param_is_empty.exit.thread:                  ; preds = %5, %20, %13, %10, %ossl_param_is_empty.exit, %2, %30
  %.0 = phi i32 [ %.1, %30 ], [ 0, %2 ], [ 1, %ossl_param_is_empty.exit ], [ 0, %10 ], [ 0, %13 ], [ 1, %20 ], [ 1, %5 ]
  ret i32 %.0
}